target datalayout = "e-m:e-p270:32:32-p271:32:32-p272:64:64-i64:64-i128:128-f80:128-n8:16:32:64-S128"
target triple = "x86_64-pc-linux-gnu"

%struct.Aig_Man_t_ = type { ptr, ptr, ptr, ptr, ptr, ptr, ptr, %struct.Aig_Obj_t_, i32, i32, i32, i32, i32, i32, [7 x i32], i32, ptr, i32, ptr, i32, ptr, i32, i32, i32, ptr, i32, i32, i32, i32, i32, ptr, ptr, i32, ptr, ptr, i32, ptr, ptr, i32, i32, i32, ptr, ptr, ptr, ptr, ptr, ptr, ptr, ptr, ptr, ptr, ptr, ptr, ptr, ptr, i32, ptr, ptr, ptr, ptr, i32, i64, i64, i64, ptr, ptr }
%struct.Aig_Obj_t_ = type { %union.anon, ptr, ptr, i64, i32, i32, %union.anon.0 }
%union.anon = type { ptr }
%union.anon.0 = type { ptr }
%struct.Vec_Ptr_t_ = type { i32, i32, ptr }

@.str.1 = private unnamed_addr constant [7 x i8] c"%d=%d \00", align 1
@.str.2 = private unnamed_addr constant [2 x i8] c"\0A\00", align 1

; Function Attrs: inlinehint nounwind uwtable
define internal i32 @Aig_ObjId(ptr noundef %0) #5 {
  %2 = alloca ptr, align 8
  store ptr %0, ptr %2, align 8, !tbaa !26
  %3 = load ptr, ptr %2, align 8, !tbaa !26
  %4 = getelementptr inbounds nuw %struct.Aig_Obj_t_, ptr %3, i32 0, i32 5
  %5 = load i32, ptr %4, align 4, !tbaa !80
  ret i32 %5
}

; Function Attrs: inlinehint nounwind uwtable
define internal ptr @Aig_Regular(ptr noundef %0) #5 {
  %2 = alloca ptr, align 8
  store ptr %0, ptr %2, align 8, !tbaa !26
  %3 = load ptr, ptr %2, align 8, !tbaa !26
  %4 = ptrtoint ptr %3 to i64
  %5 = and i64 %4, -2
  %6 = inttoptr i64 %5 to ptr
  ret ptr %6
}

; Function Attrs: inlinehint nounwind uwtable
define internal void @Vec_PtrFree(ptr noundef %0) #5 {
  %2 = alloca ptr, align 8
  store ptr %0, ptr %2, align 8, !tbaa !30
  %3 = load ptr, ptr %2, align 8, !tbaa !30
  %4 = getelementptr inbounds nuw %struct.Vec_Ptr_t_, ptr %3, i32 0, i32 2
  %5 = load ptr, ptr %4, align 8, !tbaa !31
  %6 = icmp ne ptr %5, null
  br i1 %6, label %7, label %13

7:                                                ; preds = %1
  %8 = load ptr, ptr %2, align 8, !tbaa !30
  %9 = getelementptr inbounds nuw %struct.Vec_Ptr_t_, ptr %8, i32 0, i32 2
  %10 = load ptr, ptr %9, align 8, !tbaa !31
  call void @free(ptr noundef %10) #11
  %11 = load ptr, ptr %2, align 8, !tbaa !30
  %12 = getelementptr inbounds nuw %struct.Vec_Ptr_t_, ptr %11, i32 0, i32 2
  store ptr null, ptr %12, align 8, !tbaa !31
  br label %14

13:                                               ; preds = %1
  br label %14

14:                                               ; preds = %13, %7
  %15 = load ptr, ptr %2, align 8, !tbaa !30
  %16 = icmp ne ptr %15, null
  br i1 %16, label %17, label %19

17:                                               ; preds = %14
  %18 = load ptr, ptr %2, align 8, !tbaa !30
  call void @free(ptr noundef %18) #11
  store ptr null, ptr %2, align 8, !tbaa !30
  br label %20

19:                                               ; preds = %14
  br label %20

20:                                               ; preds = %19, %17
  ret void
}

; Function Attrs: inlinehint nounwind uwtable
define internal void @Vec_PtrFreeData(ptr noundef %0) #5 {
  %2 = alloca ptr, align 8
  %3 = alloca ptr, align 8
  %4 = alloca i32, align 4
  %5 = alloca i32, align 4
  store ptr %0, ptr %2, align 8, !tbaa !30
  call void @llvm.lifetime.start.p0(i64 8, ptr %3) #11
  call void @llvm.lifetime.start.p0(i64 4, ptr %4) #11
  %6 = load ptr, ptr %2, align 8, !tbaa !30
  %7 = icmp eq ptr %6, null
  br i1 %7, label %8, label %9

8:                                                ; preds = %1
  store i32 1, ptr %5, align 4
  br label %39

9:                                                ; preds = %1
  store i32 0, ptr %4, align 4, !tbaa !8
  br label %10

10:                                               ; preds = %35, %9
  %11 = load i32, ptr %4, align 4, !tbaa !8
  %12 = load ptr, ptr %2, align 8, !tbaa !30
  %13 = call i32 @Vec_PtrSize(ptr noundef %12)
  %14 = icmp slt i32 %11, %13
  br i1 %14, label %15, label %19

15:                                               ; preds = %10
  %16 = load ptr, ptr %2, align 8, !tbaa !30
  %17 = load i32, ptr %4, align 4, !tbaa !8
  %18 = call ptr @Vec_PtrEntry(ptr noundef %16, i32 noundef %17)
  store ptr %18, ptr %3, align 8, !tbaa !33
  br label %19

19:                                               ; preds = %15, %10
  %20 = phi i1 [ false, %10 ], [ true, %15 ]
  br i1 %20, label %21, label %38

21:                                               ; preds = %19
  %22 = load ptr, ptr %3, align 8, !tbaa !33
  %23 = icmp ne ptr %22, inttoptr (i64 1 to ptr)
  br i1 %23, label %24, label %34

24:                                               ; preds = %21
  %25 = load ptr, ptr %3, align 8, !tbaa !33
  %26 = icmp ne ptr %25, inttoptr (i64 2 to ptr)
  br i1 %26, label %27, label %34

27:                                               ; preds = %24
  %28 = load ptr, ptr %3, align 8, !tbaa !33
  %29 = icmp ne ptr %28, null
  br i1 %29, label %30, label %32

30:                                               ; preds = %27
  %31 = load ptr, ptr %3, align 8, !tbaa !33
  call void @free(ptr noundef %31) #11
  store ptr null, ptr %3, align 8, !tbaa !33
  br label %33

32:                                               ; preds = %27
  br label %33

33:                                               ; preds = %32, %30
  br label %34

34:                                               ; preds = %33, %24, %21
  br label %35

35:                                               ; preds = %34
  %36 = load i32, ptr %4, align 4, !tbaa !8
  %37 = add nsw i32 %36, 1
  store i32 %37, ptr %4, align 4, !tbaa !8
  br label %10, !llvm.loop !244

38:                                               ; preds = %19
  store i32 0, ptr %5, align 4
  br label %39

39:                                               ; preds = %38, %8
  call void @llvm.lifetime.end.p0(i64 4, ptr %4) #11
  call void @llvm.lifetime.end.p0(i64 8, ptr %3) #11
  %40 = load i32, ptr %5, align 4
  switch i32 %40, label %42 [
    i32 0, label %41
    i32 1, label %41
  ]

41:                                               ; preds = %39, %39
  ret void

42:                                               ; preds = %39
  unreachable
}

; Function Attrs: inlinehint nounwind uwtable
define internal i32 @Saig_ManBmcSimInfoGet(ptr noundef %0, ptr noundef %1) #5 {
  %3 = alloca ptr, align 8
  %4 = alloca ptr, align 8
  store ptr %0, ptr %3, align 8, !tbaa !12
  store ptr %1, ptr %4, align 8, !tbaa !26
  %5 = load ptr, ptr %3, align 8, !tbaa !12
  %6 = load ptr, ptr %4, align 8, !tbaa !26
  %7 = call i32 @Aig_ObjId(ptr noundef %6)
  %8 = ashr i32 %7, 4
  %9 = sext i32 %8 to i64
  %10 = getelementptr inbounds i32, ptr %5, i64 %9
  %11 = load i32, ptr %10, align 4, !tbaa !8
  %12 = load ptr, ptr %4, align 8, !tbaa !26
  %13 = call i32 @Aig_ObjId(ptr noundef %12)
  %14 = and i32 %13, 15
  %15 = shl i32 %14, 1
  %16 = lshr i32 %11, %15
  %17 = and i32 3, %16
  ret i32 %17
}

; Function Attrs: inlinehint nounwind uwtable
define internal i32 @Aig_ObjIsConst1(ptr noundef %0) #5 {
  %2 = alloca ptr, align 8
  store ptr %0, ptr %2, align 8, !tbaa !26
  %3 = load ptr, ptr %2, align 8, !tbaa !26
  %4 = getelementptr inbounds nuw %struct.Aig_Obj_t_, ptr %3, i32 0, i32 3
  %5 = load i64, ptr %4, align 8
  %6 = and i64 %5, 7
  %7 = trunc i64 %6 to i32
  %8 = icmp eq i32 %7, 1
  %9 = zext i1 %8 to i32
  ret i32 %9
}

; Function Attrs: inlinehint nounwind uwtable
define internal ptr @Aig_ObjFanin0(ptr noundef %0) #5 {
  %2 = alloca ptr, align 8
  store ptr %0, ptr %2, align 8, !tbaa !26
  %3 = load ptr, ptr %2, align 8, !tbaa !26
  %4 = getelementptr inbounds nuw %struct.Aig_Obj_t_, ptr %3, i32 0, i32 1
  %5 = load ptr, ptr %4, align 8, !tbaa !35
  %6 = call ptr @Aig_Regular(ptr noundef %5)
  ret ptr %6
}

; Function Attrs: inlinehint nounwind uwtable
define internal i32 @Saig_ManPoNum(ptr noundef %0) #5 {
  %2 = alloca ptr, align 8
  store ptr %0, ptr %2, align 8, !tbaa !10
  %3 = load ptr, ptr %2, align 8, !tbaa !10
  %4 = getelementptr inbounds nuw %struct.Aig_Man_t_, ptr %3, i32 0, i32 10
  %5 = load i32, ptr %4, align 8, !tbaa !34
  ret i32 %5
}

; Function Attrs: inlinehint nounwind uwtable
define internal i32 @Saig_ManRegNum(ptr noundef %0) #5 {
  %2 = alloca ptr, align 8
  store ptr %0, ptr %2, align 8, !tbaa !10
  %3 = load ptr, ptr %2, align 8, !tbaa !10
  %4 = getelementptr inbounds nuw %struct.Aig_Man_t_, ptr %3, i32 0, i32 8
  %5 = load i32, ptr %4, align 8, !tbaa !29
  ret i32 %5
}

; Function Attrs: inlinehint nounwind uwtable
define internal void @Vec_PtrFreeFree(ptr noundef %0) #5 {
  %2 = alloca ptr, align 8
  store ptr %0, ptr %2, align 8, !tbaa !30
  %3 = load ptr, ptr %2, align 8, !tbaa !30
  %4 = icmp eq ptr %3, null
  br i1 %4, label %5, label %6

5:                                                ; preds = %1
  br label %9

6:                                                ; preds = %1
  %7 = load ptr, ptr %2, align 8, !tbaa !30
  call void @Vec_PtrFreeData(ptr noundef %7)
  %8 = load ptr, ptr %2, align 8, !tbaa !30
  call void @Vec_PtrFree(ptr noundef %8)
  br label %9

9:                                                ; preds = %6, %5
  ret void
}

; Function Attrs: nounwind uwtable
define i32 @Saig_ManBmcTerSimCount01(ptr noundef %0, ptr noundef %1) #0 {
  %3 = alloca i32, align 4
  %4 = alloca ptr, align 8
  %5 = alloca ptr, align 8
  %6 = alloca ptr, align 8
  %7 = alloca i32, align 4
  %8 = alloca i32, align 4
  %9 = alloca i32, align 4
  store ptr %0, ptr %4, align 8, !tbaa !10
  store ptr %1, ptr %5, align 8, !tbaa !12
  call void @llvm.lifetime.start.p0(i64 8, ptr %6) #11
  call void @llvm.lifetime.start.p0(i64 4, ptr %7) #11
  call void @llvm.lifetime.start.p0(i64 4, ptr %8) #11
  store i32 0, ptr %8, align 4, !tbaa !8
  %10 = load ptr, ptr %5, align 8, !tbaa !12
  %11 = icmp eq ptr %10, null
  br i1 %11, label %12, label %15

12:                                               ; preds = %2
  %13 = load ptr, ptr %4, align 8, !tbaa !10
  %14 = call i32 @Saig_ManRegNum(ptr noundef %13)
  store i32 %14, ptr %3, align 4
  store i32 1, ptr %9, align 4
  br label %51

15:                                               ; preds = %2
  store i32 0, ptr %7, align 4, !tbaa !8
  br label %16

16:                                               ; preds = %46, %15
  %17 = load i32, ptr %7, align 4, !tbaa !8
  %18 = load ptr, ptr %4, align 8, !tbaa !10
  %19 = call i32 @Saig_ManRegNum(ptr noundef %18)
  %20 = icmp slt i32 %17, %19
  br i1 %20, label %21, label %30

21:                                               ; preds = %16
  %22 = load ptr, ptr %4, align 8, !tbaa !10
  %23 = getelementptr inbounds nuw %struct.Aig_Man_t_, ptr %22, i32 0, i32 3
  %24 = load ptr, ptr %23, align 8, !tbaa !14
  %25 = load i32, ptr %7, align 4, !tbaa !8
  %26 = load ptr, ptr %4, align 8, !tbaa !10
  %27 = call i32 @Saig_ManPoNum(ptr noundef %26)
  %28 = add nsw i32 %25, %27
  %29 = call ptr @Vec_PtrEntry(ptr noundef %24, i32 noundef %28)
  store ptr %29, ptr %6, align 8, !tbaa !26
  br label %30

30:                                               ; preds = %21, %16
  %31 = phi i1 [ false, %16 ], [ true, %21 ]
  br i1 %31, label %32, label %49

32:                                               ; preds = %30
  %33 = load ptr, ptr %6, align 8, !tbaa !26
  %34 = call ptr @Aig_ObjFanin0(ptr noundef %33)
  %35 = call i32 @Aig_ObjIsConst1(ptr noundef %34)
  %36 = icmp ne i32 %35, 0
  br i1 %36, label %45, label %37

37:                                               ; preds = %32
  %38 = load ptr, ptr %5, align 8, !tbaa !12
  %39 = load ptr, ptr %6, align 8, !tbaa !26
  %40 = call i32 @Saig_ManBmcSimInfoGet(ptr noundef %38, ptr noundef %39)
  %41 = icmp ne i32 %40, 3
  %42 = zext i1 %41 to i32
  %43 = load i32, ptr %8, align 4, !tbaa !8
  %44 = add nsw i32 %43, %42
  store i32 %44, ptr %8, align 4, !tbaa !8
  br label %45

45:                                               ; preds = %37, %32
  br label %46

46:                                               ; preds = %45
  %47 = load i32, ptr %7, align 4, !tbaa !8
  %48 = add nsw i32 %47, 1
  store i32 %48, ptr %7, align 4, !tbaa !8
  br label %16, !llvm.loop !27

49:                                               ; preds = %30
  %50 = load i32, ptr %8, align 4, !tbaa !8
  store i32 %50, ptr %3, align 4
  store i32 1, ptr %9, align 4
  br label %51

51:                                               ; preds = %49, %12
  call void @llvm.lifetime.end.p0(i64 4, ptr %8) #11
  call void @llvm.lifetime.end.p0(i64 4, ptr %7) #11
  call void @llvm.lifetime.end.p0(i64 8, ptr %6) #11
  %52 = load i32, ptr %3, align 4
  ret i32 %52
}

; Function Attrs: inlinehint nounwind uwtable
define internal ptr @Vec_PtrEntry(ptr noundef %0, i32 noundef %1) #5 {
  %3 = alloca ptr, align 8
  %4 = alloca i32, align 4
  store ptr %0, ptr %3, align 8, !tbaa !30
  store i32 %1, ptr %4, align 4, !tbaa !8
  %5 = load ptr, ptr %3, align 8, !tbaa !30
  %6 = getelementptr inbounds nuw %struct.Vec_Ptr_t_, ptr %5, i32 0, i32 2
  %7 = load ptr, ptr %6, align 8, !tbaa !31
  %8 = load i32, ptr %4, align 4, !tbaa !8
  %9 = sext i32 %8 to i64
  %10 = getelementptr inbounds ptr, ptr %7, i64 %9
  %11 = load ptr, ptr %10, align 8, !tbaa !33
  ret ptr %11
}

; Function Attrs: inlinehint nounwind uwtable
define internal i32 @Vec_PtrSize(ptr noundef %0) #5 {
  %2 = alloca ptr, align 8
  store ptr %0, ptr %2, align 8, !tbaa !30
  %3 = load ptr, ptr %2, align 8, !tbaa !30
  %4 = getelementptr inbounds nuw %struct.Vec_Ptr_t_, ptr %3, i32 0, i32 1
  %5 = load i32, ptr %4, align 4, !tbaa !45
  ret i32 %5
}

; Function Attrs: nounwind uwtable
define void @Saig_ManBmcTerSimTest(ptr noundef %0) #0 {
  %2 = alloca ptr, align 8
  %3 = alloca ptr, align 8
  %4 = alloca ptr, align 8
  %5 = alloca i32, align 4
  store ptr %0, ptr %2, align 8, !tbaa !10
  call void @llvm.lifetime.start.p0(i64 8, ptr %3) #11
  call void @llvm.lifetime.start.p0(i64 8, ptr %4) #11
  call void @llvm.lifetime.start.p0(i64 4, ptr %5) #11
  %6 = load ptr, ptr %2, align 8, !tbaa !10
  %7 = call ptr @Saig_ManBmcTerSim(ptr noundef %6)
  store ptr %7, ptr %3, align 8, !tbaa !30
  store i32 0, ptr %5, align 4, !tbaa !8
  br label %8

8:                                                ; preds = %24, %1
  %9 = load i32, ptr %5, align 4, !tbaa !8
  %10 = load ptr, ptr %3, align 8, !tbaa !30
  %11 = call i32 @Vec_PtrSize(ptr noundef %10)
  %12 = icmp slt i32 %9, %11
  br i1 %12, label %13, label %17

13:                                               ; preds = %8
  %14 = load ptr, ptr %3, align 8, !tbaa !30
  %15 = load i32, ptr %5, align 4, !tbaa !8
  %16 = call ptr @Vec_PtrEntry(ptr noundef %14, i32 noundef %15)
  store ptr %16, ptr %4, align 8, !tbaa !12
  br label %17

17:                                               ; preds = %13, %8
  %18 = phi i1 [ false, %8 ], [ true, %13 ]
  br i1 %18, label %19, label %27

19:                                               ; preds = %17
  %20 = load i32, ptr %5, align 4, !tbaa !8
  %21 = load ptr, ptr %2, align 8, !tbaa !10
  %22 = load ptr, ptr %4, align 8, !tbaa !12
  %23 = call i32 @Saig_ManBmcTerSimCount01(ptr noundef %21, ptr noundef %22)
  call void (i32, ptr, ...) @Abc_Print(i32 noundef 1, ptr noundef @.str.1, i32 noundef %20, i32 noundef %23)
  br label %24

24:                                               ; preds = %19
  %25 = load i32, ptr %5, align 4, !tbaa !8
  %26 = add nsw i32 %25, 1
  store i32 %26, ptr %5, align 4, !tbaa !8
  br label %8, !llvm.loop !49

27:                                               ; preds = %17
  call void (i32, ptr, ...) @Abc_Print(i32 noundef 1, ptr noundef @.str.2)
  %28 = load ptr, ptr %3, align 8, !tbaa !30
  call void @Vec_PtrFreeFree(ptr noundef %28)
  call void @llvm.lifetime.end.p0(i64 4, ptr %5) #11
  call void @llvm.lifetime.end.p0(i64 8, ptr %4) #11
  call void @llvm.lifetime.end.p0(i64 8, ptr %3) #11
  ret void
}