; Function Attrs: nounwind uwtable
define void @Saig_ManBmcTerSimTest(ptr noundef readonly captures(none) %0) local_unnamed_addr #0 {
  %2 = tail call ptr @Saig_ManBmcTerSim(ptr noundef %0)
  %3 = getelementptr i8, ptr %2, i64 4
  %.val9 = load i32, ptr %3, align 4, !tbaa !32
  %4 = icmp sgt i32 %.val9, 0
  br i1 %4, label %.lr.ph, label %._crit_edge.thread

._crit_edge.thread:                               ; preds = %1
  tail call void (i32, ptr, ...) @Abc_Print(i32 poison, ptr noundef nonnull @.str.2)
  %.phi.trans.insert = getelementptr inbounds nuw i8, ptr %2, i64 8
  %.pre = load ptr, ptr %.phi.trans.insert, align 8, !tbaa !23
  %.not.i.i = icmp eq ptr %.pre, null
  br i1 %.not.i.i, label %Vec_PtrFreeFree.exit, label %Vec_PtrFreeData.exit.i.thread

.lr.ph:                                           ; preds = %1
  %5 = getelementptr i8, ptr %2, i64 8
  %.val = load ptr, ptr %5, align 8, !tbaa !23
  %6 = getelementptr i8, ptr %0, i64 104
  %7 = getelementptr inbounds nuw i8, ptr %0, i64 24
  %8 = getelementptr i8, ptr %0, i64 112
  %wide.trip.count = zext nneg i32 %.val9 to i64
  br label %9

9:                                                ; preds = %.lr.ph, %Saig_ManBmcTerSimCount01.exit
  %indvars.iv = phi i64 [ 0, %.lr.ph ], [ %indvars.iv.next, %Saig_ManBmcTerSimCount01.exit ]
  %10 = getelementptr inbounds nuw ptr, ptr %.val, i64 %indvars.iv
  %11 = load ptr, ptr %10, align 8, !tbaa !25
  %12 = icmp eq ptr %11, null
  %.val.i = load i32, ptr %6, align 8, !tbaa !3
  br i1 %12, label %Saig_ManBmcTerSimCount01.exit, label %.preheader.i

.preheader.i:                                     ; preds = %9
  %13 = icmp sgt i32 %.val.i, 0
  br i1 %13, label %.lr.ph.i, label %Saig_ManBmcTerSimCount01.exit

.lr.ph.i:                                         ; preds = %.preheader.i
  %14 = load ptr, ptr %7, align 8, !tbaa !21
  %.val17.i = load i32, ptr %8, align 8, !tbaa !22
  %15 = getelementptr i8, ptr %14, i64 8
  %.val18.i = load ptr, ptr %15, align 8, !tbaa !23
  %16 = sext i32 %.val17.i to i64
  %wide.trip.count.i = zext nneg i32 %.val.i to i64
  %invariant.gep.i = getelementptr ptr, ptr %.val18.i, i64 %16
  br label %17

17:                                               ; preds = %38, %.lr.ph.i
  %indvars.iv.i = phi i64 [ 0, %.lr.ph.i ], [ %indvars.iv.next.i, %38 ]
  %.023.i = phi i32 [ 0, %.lr.ph.i ], [ %.1.i, %38 ]
  %gep.i = getelementptr ptr, ptr %invariant.gep.i, i64 %indvars.iv.i
  %18 = load ptr, ptr %gep.i, align 8, !tbaa !25
  %19 = getelementptr i8, ptr %18, i64 8
  %.val19.i = load ptr, ptr %19, align 8, !tbaa !26
  %20 = ptrtoint ptr %.val19.i to i64
  %21 = and i64 %20, -2
  %22 = inttoptr i64 %21 to ptr
  %23 = getelementptr i8, ptr %22, i64 24
  %.val20.i = load i64, ptr %23, align 8
  %24 = and i64 %.val20.i, 7
  %.not.i = icmp eq i64 %24, 1
  br i1 %.not.i, label %38, label %25

25:                                               ; preds = %17
  %26 = getelementptr i8, ptr %18, i64 36
  %.val21.i = load i32, ptr %26, align 4, !tbaa !27
  %27 = ashr i32 %.val21.i, 4
  %28 = sext i32 %27 to i64
  %29 = getelementptr inbounds i32, ptr %11, i64 %28
  %30 = load i32, ptr %29, align 4, !tbaa !28
  %31 = shl i32 %.val21.i, 1
  %32 = and i32 %31, 30
  %33 = lshr i32 %30, %32
  %34 = and i32 %33, 3
  %35 = icmp ne i32 %34, 3
  %36 = zext i1 %35 to i32
  %37 = add nsw i32 %.023.i, %36
  br label %38

38:                                               ; preds = %25, %17
  %.1.i = phi i32 [ %.023.i, %17 ], [ %37, %25 ]
  %indvars.iv.next.i = add nuw nsw i64 %indvars.iv.i, 1
  %exitcond.not.i = icmp eq i64 %indvars.iv.next.i, %wide.trip.count.i
  br i1 %exitcond.not.i, label %Saig_ManBmcTerSimCount01.exit, label %17, !llvm.loop !29

Saig_ManBmcTerSimCount01.exit:                    ; preds = %38, %9, %.preheader.i
  %.014.i = phi i32 [ 0, %.preheader.i ], [ %.val.i, %9 ], [ %.1.i, %38 ]
  %39 = trunc nuw nsw i64 %indvars.iv to i32
  tail call void (i32, ptr, ...) @Abc_Print(i32 poison, ptr noundef nonnull @.str.1, i32 noundef %39, i32 noundef %.014.i)
  %indvars.iv.next = add nuw nsw i64 %indvars.iv, 1
  %exitcond.not = icmp eq i64 %indvars.iv.next, %wide.trip.count
  br i1 %exitcond.not, label %._crit_edge, label %9, !llvm.loop !44

._crit_edge:                                      ; preds = %Saig_ManBmcTerSimCount01.exit
  tail call void (i32, ptr, ...) @Abc_Print(i32 poison, ptr noundef nonnull @.str.2)
  %40 = getelementptr i8, ptr %2, i64 8
  %.val.i.i = load ptr, ptr %40, align 8, !tbaa !23
  %41 = zext nneg i32 %.val9 to i64
  br label %42

42:                                               ; preds = %46, %._crit_edge
  %indvars.iv.i.i = phi i64 [ 0, %._crit_edge ], [ %indvars.iv.next.i.i, %46 ]
  %43 = getelementptr inbounds nuw ptr, ptr %.val.i.i, i64 %indvars.iv.i.i
  %44 = load ptr, ptr %43, align 8, !tbaa !25
  %switch.i.i = icmp ult ptr %44, inttoptr (i64 3 to ptr)
  br i1 %switch.i.i, label %46, label %45

45:                                               ; preds = %42
  tail call void @free(ptr noundef %44) #24
  br label %46

46:                                               ; preds = %45, %42
  %indvars.iv.next.i.i = add nuw nsw i64 %indvars.iv.i.i, 1
  %exitcond12.not = icmp eq i64 %indvars.iv.next.i.i, %41
  br i1 %exitcond12.not, label %Vec_PtrFreeData.exit.i.thread, label %42, !llvm.loop !45

Vec_PtrFreeData.exit.i.thread:                    ; preds = %46, %._crit_edge.thread
  %47 = phi ptr [ %.pre, %._crit_edge.thread ], [ %.val.i.i, %46 ]
  tail call void @free(ptr noundef nonnull %47) #24
  br label %Vec_PtrFreeFree.exit

Vec_PtrFreeFree.exit:                             ; preds = %._crit_edge.thread, %Vec_PtrFreeData.exit.i.thread
  tail call void @free(ptr noundef nonnull %2) #24
  ret void
}